target datalayout = "e-m:e-p270:32:32-p271:32:32-p272:64:64-i64:64-i128:128-f80:128-n8:16:32:64-S128"
target triple = "x86_64-pc-linux-gnu"

; Function Attrs: nounwind uwtable
define internal void @cfl_luma_subsampling_420_hbd_c(ptr noundef %0, i32 noundef %1, ptr noundef %2, i32 noundef %3, i32 noundef %4) #0 {
  %6 = alloca ptr, align 8
  %7 = alloca i32, align 4
  %8 = alloca ptr, align 8
  %9 = alloca i32, align 4
  %10 = alloca i32, align 4
  %11 = alloca i32, align 4
  %12 = alloca i32, align 4
  %13 = alloca i32, align 4
  store ptr %0, ptr %6, align 8
  store i32 %1, ptr %7, align 4
  store ptr %2, ptr %8, align 8
  store i32 %3, ptr %9, align 4
  store i32 %4, ptr %10, align 4
  store i32 0, ptr %11, align 4
  br label %14

14:                                               ; preds = %74, %5
  %15 = load i32, ptr %11, align 4
  %16 = load i32, ptr %10, align 4
  %17 = icmp slt i32 %15, %16
  br i1 %17, label %18, label %77

18:                                               ; preds = %14
  store i32 0, ptr %12, align 4
  br label %19

19:                                               ; preds = %63, %18
  %20 = load i32, ptr %12, align 4
  %21 = load i32, ptr %9, align 4
  %22 = icmp slt i32 %20, %21
  br i1 %22, label %23, label %66

23:                                               ; preds = %19
  %24 = load i32, ptr %12, align 4
  %25 = load i32, ptr %7, align 4
  %26 = add nsw i32 %24, %25
  store i32 %26, ptr %13, align 4
  %27 = load ptr, ptr %6, align 8
  %28 = load i32, ptr %12, align 4
  %29 = sext i32 %28 to i64
  %30 = getelementptr inbounds i16, ptr %27, i64 %29
  %31 = load i16, ptr %30, align 2
  %32 = zext i16 %31 to i32
  %33 = load ptr, ptr %6, align 8
  %34 = load i32, ptr %12, align 4
  %35 = add nsw i32 %34, 1
  %36 = sext i32 %35 to i64
  %37 = getelementptr inbounds i16, ptr %33, i64 %36
  %38 = load i16, ptr %37, align 2
  %39 = zext i16 %38 to i32
  %40 = add nsw i32 %32, %39
  %41 = load ptr, ptr %6, align 8
  %42 = load i32, ptr %13, align 4
  %43 = sext i32 %42 to i64
  %44 = getelementptr inbounds i16, ptr %41, i64 %43
  %45 = load i16, ptr %44, align 2
  %46 = zext i16 %45 to i32
  %47 = add nsw i32 %40, %46
  %48 = load ptr, ptr %6, align 8
  %49 = load i32, ptr %13, align 4
  %50 = add nsw i32 %49, 1
  %51 = sext i32 %50 to i64
  %52 = getelementptr inbounds i16, ptr %48, i64 %51
  %53 = load i16, ptr %52, align 2
  %54 = zext i16 %53 to i32
  %55 = add nsw i32 %47, %54
  %56 = shl i32 %55, 1
  %57 = trunc i32 %56 to i16
  %58 = load ptr, ptr %8, align 8
  %59 = load i32, ptr %12, align 4
  %60 = ashr i32 %59, 1
  %61 = sext i32 %60 to i64
  %62 = getelementptr inbounds i16, ptr %58, i64 %61
  store i16 %57, ptr %62, align 2
  br label %63

63:                                               ; preds = %23
  %64 = load i32, ptr %12, align 4
  %65 = add nsw i32 %64, 2
  store i32 %65, ptr %12, align 4
  br label %19, !llvm.loop !21

66:                                               ; preds = %19
  %67 = load i32, ptr %7, align 4
  %68 = shl i32 %67, 1
  %69 = load ptr, ptr %6, align 8
  %70 = sext i32 %68 to i64
  %71 = getelementptr inbounds i16, ptr %69, i64 %70
  store ptr %71, ptr %6, align 8
  %72 = load ptr, ptr %8, align 8
  %73 = getelementptr inbounds i16, ptr %72, i64 32
  store ptr %73, ptr %8, align 8
  br label %74

74:                                               ; preds = %66
  %75 = load i32, ptr %11, align 4
  %76 = add nsw i32 %75, 2
  store i32 %76, ptr %11, align 4
  br label %14, !llvm.loop !22

77:                                               ; preds = %14
  ret void
}

; Function Attrs: nounwind uwtable
define hidden void @cfl_subsample_hbd_420_32x32_c(ptr noundef %0, i32 noundef %1, ptr noundef %2) #0 {
  %4 = alloca ptr, align 8
  %5 = alloca i32, align 4
  %6 = alloca ptr, align 8
  store ptr %0, ptr %4, align 8
  store i32 %1, ptr %5, align 4
  store ptr %2, ptr %6, align 8
  %7 = load ptr, ptr %4, align 8
  %8 = load i32, ptr %5, align 4
  %9 = load ptr, ptr %6, align 8
  call void @cfl_luma_subsampling_420_hbd_c(ptr noundef %7, i32 noundef %8, ptr noundef %9, i32 noundef 32, i32 noundef 32)
  ret void
}